; Function Attrs: nofree norecurse nosync nounwind memory(read, inaccessiblemem: none) uwtable
define noundef zeroext i1 @zend_check_protected(ptr noundef readonly %0, ptr noundef readonly %1) local_unnamed_addr #6 {
  %.not14 = icmp eq ptr %0, null
  br i1 %.not14, label %.preheader, label %.lr.ph

.preheader:                                       ; preds = %4, %2
  %.not1216 = icmp eq ptr %1, null
  br i1 %.not1216, label %.loopexit, label %.lr.ph18

.lr.ph:                                           ; preds = %2, %4
  %.015 = phi ptr [ %6, %4 ], [ %0, %2 ]
  %3 = icmp eq ptr %.015, %1
  br i1 %3, label %.loopexit, label %4

4:                                                ; preds = %.lr.ph
  %5 = getelementptr inbounds i8, ptr %.015, i64 16
  %6 = load ptr, ptr %5, align 8
  %.not = icmp eq ptr %6, null
  br i1 %.not, label %.preheader, label %.lr.ph

.lr.ph18:                                         ; preds = %.preheader, %8
  %.01017 = phi ptr [ %10, %8 ], [ %1, %.preheader ]
  %7 = icmp eq ptr %.01017, %0
  br i1 %7, label %.loopexit, label %8

8:                                                ; preds = %.lr.ph18
  %9 = getelementptr inbounds i8, ptr %.01017, i64 16
  %10 = load ptr, ptr %9, align 8
  %.not12 = icmp eq ptr %10, null
  br i1 %.not12, label %.loopexit, label %.lr.ph18

.loopexit:                                        ; preds = %.lr.ph, %.lr.ph18, %8, %.preheader
  %.011 = phi i1 [ false, %.preheader ], [ %7, %8 ], [ %7, %.lr.ph18 ], [ true, %.lr.ph ]
  ret i1 %.011
}